; Function Attrs: mustprogress nofree nounwind willreturn memory(read, inaccessiblemem: none) uwtable
define internal i32 @trackitem_compare_lexemes(ptr noundef readonly captures(none) %0, ptr noundef readonly captures(none) %1, ptr readnone captures(none) %2) #3 {
  %4 = load ptr, ptr %0, align 8
  %5 = load ptr, ptr %1, align 8
  %6 = getelementptr inbounds nuw i8, ptr %4, i64 8
  %7 = load i32, ptr %6, align 8
  %8 = getelementptr inbounds nuw i8, ptr %5, i64 8
  %9 = load i32, ptr %8, align 8
  %10 = icmp sgt i32 %7, %9
  br i1 %10, label %lexeme_compare.exit, label %11

11:                                               ; preds = %3
  %12 = icmp slt i32 %7, %9
  br i1 %12, label %lexeme_compare.exit, label %13

13:                                               ; preds = %11
  %14 = load ptr, ptr %4, align 8
  %15 = load ptr, ptr %5, align 8
  %16 = sext i32 %7 to i64
  %17 = tail call i32 @strncmp(ptr noundef %14, ptr noundef %15, i64 noundef %16) #13
  br label %lexeme_compare.exit

lexeme_compare.exit:                              ; preds = %3, %11, %13
  %.0.i = phi i32 [ %17, %13 ], [ 1, %3 ], [ -1, %11 ]
  ret i32 %.0.i
}